; Function Attrs: mustprogress uwtable
define void @_ZN17CredentialsDialog16actionGoToPacketERK11QModelIndex(ptr nocapture noundef nonnull readonly align 8 dereferenceable(160) %0, ptr noundef nonnull align 8 dereferenceable(24) %1) #0 align 2 personality ptr @__gxx_personality_v0 {
  %3 = alloca %"struct.QVariant::Private", align 8
  %4 = alloca %class.QVariant, align 8
  %5 = alloca %class.QVariant, align 8
  %6 = alloca %class.QVariant, align 8
  %7 = alloca %class.QVariant, align 8
  %8 = alloca i32, align 4
  %9 = load i32, ptr %1, align 8
  %10 = icmp sgt i32 %9, -1
  %11 = getelementptr inbounds i8, ptr %1, i64 4
  %12 = load i32, ptr %11, align 4
  %13 = icmp sgt i32 %12, -1
  %or.cond.i = select i1 %10, i1 %13, i1 false
  %14 = getelementptr inbounds i8, ptr %1, i64 16
  %15 = load ptr, ptr %14, align 8
  %16 = icmp ne ptr %15, null
  %or.cond = select i1 %or.cond.i, i1 %16, i1 false
  br i1 %or.cond, label %_ZNK11QModelIndex4dataEi.exit, label %_ZNK11QModelIndex7isValidEv.exit.thread

_ZNK11QModelIndex4dataEi.exit:                    ; preds = %2
  %17 = load ptr, ptr %15, align 8, !noalias !10
  %18 = getelementptr inbounds i8, ptr %17, i64 144
  %19 = load ptr, ptr %18, align 8, !noalias !10
  call void %19(ptr dead_on_unwind nonnull writable sret(%class.QVariant) align 8 %5, ptr noundef nonnull align 8 dereferenceable(16) %15, ptr noundef nonnull align 8 dereferenceable(24) %1, i32 noundef 256)
  %.pre = load ptr, ptr %14, align 8, !noalias !13
  call void @llvm.experimental.noalias.scope.decl(metadata !13)
  %.not.i7 = icmp eq ptr %.pre, null
  br i1 %.not.i7, label %26, label %20

20:                                               ; preds = %_ZNK11QModelIndex4dataEi.exit
  %21 = load ptr, ptr %.pre, align 8, !noalias !13
  %22 = getelementptr inbounds i8, ptr %21, i64 144
  %23 = load ptr, ptr %22, align 8, !noalias !13
  invoke void %23(ptr dead_on_unwind nonnull writable sret(%class.QVariant) align 8 %6, ptr noundef nonnull align 8 dereferenceable(16) %.pre, ptr noundef nonnull align 8 dereferenceable(24) %1, i32 noundef 257)
          to label %._ZNK11QModelIndex4dataEi.exit8_crit_edge unwind label %31

._ZNK11QModelIndex4dataEi.exit8_crit_edge:        ; preds = %20
  %.phi.trans.insert = getelementptr inbounds i8, ptr %6, i64 24
  %.pre15 = load i64, ptr %.phi.trans.insert, align 8
  %24 = and i64 %.pre15, -4
  %25 = inttoptr i64 %24 to ptr
  br label %_ZNK11QModelIndex4dataEi.exit8

26:                                               ; preds = %_ZNK11QModelIndex4dataEi.exit
  call void @llvm.memset.p0.i64(ptr noundef nonnull align 8 dereferenceable(24) %6, i8 0, i64 24, i1 false), !alias.scope !13
  %27 = getelementptr inbounds i8, ptr %6, i64 24
  store i64 2, ptr %27, align 8, !alias.scope !13
  br label %_ZNK11QModelIndex4dataEi.exit8

_ZNK11QModelIndex4dataEi.exit8:                   ; preds = %._ZNK11QModelIndex4dataEi.exit8_crit_edge, %26
  %28 = phi ptr [ %25, %._ZNK11QModelIndex4dataEi.exit8_crit_edge ], [ null, %26 ]
  %29 = invoke noundef zeroext i1 @_ZN9QMetaType10canConvertES_S_(ptr %28, ptr nonnull @_ZN9QtPrivate25QMetaTypeInterfaceWrapperIiE8metaTypeE)
          to label %_ZNK8QVariant10canConvertIiEEbv.exit unwind label %33

_ZNK8QVariant10canConvertIiEEbv.exit:             ; preds = %_ZNK11QModelIndex4dataEi.exit8
  br i1 %29, label %35, label %30

30:                                               ; preds = %_ZNK8QVariant10canConvertIiEEbv.exit
  store i32 0, ptr %8, align 4
  invoke void @_ZN8QVariantC1E9QMetaTypePKv(ptr noundef nonnull align 8 dereferenceable(32) %7, ptr nonnull @_ZN9QtPrivate25QMetaTypeInterfaceWrapperIiE8metaTypeE, ptr noundef nonnull %8)
          to label %_ZN8QVariant9fromValueIiEENSt9enable_ifIXsr3stdE23is_copy_constructible_vIT_EES_E4typeERKS2_.exit unwind label %33

_ZN8QVariant9fromValueIiEENSt9enable_ifIXsr3stdE23is_copy_constructible_vIT_EES_E4typeERKS2_.exit: ; preds = %30
  call void @llvm.lifetime.start.p0(i64 32, ptr nonnull %4)
  call void @llvm.memcpy.p0.p0.i64(ptr noundef nonnull align 8 dereferenceable(32) %4, ptr noundef nonnull align 8 dereferenceable(32) %7, i64 32, i1 false)
  call void @llvm.memset.p0.i64(ptr noundef nonnull align 8 dereferenceable(24) %7, i8 0, i64 24, i1 false)
  %.sroa.2.0..sroa_idx.i.i = getelementptr inbounds i8, ptr %7, i64 24
  store i64 2, ptr %.sroa.2.0..sroa_idx.i.i, align 8
  call void @llvm.lifetime.start.p0(i64 32, ptr nonnull %3)
  call void @llvm.memcpy.p0.p0.i64(ptr noundef nonnull align 8 dereferenceable(32) %3, ptr noundef nonnull align 8 dereferenceable(32) %6, i64 32, i1 false)
  call void @llvm.memcpy.p0.p0.i64(ptr noundef nonnull align 8 dereferenceable(32) %6, ptr noundef nonnull align 8 dereferenceable(32) %4, i64 32, i1 false)
  call void @llvm.memcpy.p0.p0.i64(ptr noundef nonnull align 8 dereferenceable(32) %4, ptr noundef nonnull align 8 dereferenceable(32) %3, i64 32, i1 false)
  call void @llvm.lifetime.end.p0(i64 32, ptr nonnull %3)
  call void @_ZN8QVariantD1Ev(ptr noundef nonnull align 8 dereferenceable(32) %4) #12
  call void @llvm.lifetime.end.p0(i64 32, ptr nonnull %4)
  call void @_ZN8QVariantD1Ev(ptr noundef nonnull align 8 dereferenceable(32) %7) #12
  br label %35

31:                                               ; preds = %20
  %32 = landingpad { ptr, i32 }
          cleanup
  br label %49

33:                                               ; preds = %35, %30, %_ZNK11QModelIndex4dataEi.exit8, %47, %45, %41
  %34 = landingpad { ptr, i32 }
          cleanup
  call void @_ZN8QVariantD1Ev(ptr noundef nonnull align 8 dereferenceable(32) %6) #12
  br label %49

35:                                               ; preds = %_ZN8QVariant9fromValueIiEENSt9enable_ifIXsr3stdE23is_copy_constructible_vIT_EES_E4typeERKS2_.exit, %_ZNK8QVariant10canConvertIiEEbv.exit
  %36 = getelementptr inbounds i8, ptr %5, i64 24
  %37 = load i64, ptr %36, align 8
  %38 = and i64 %37, -4
  %39 = inttoptr i64 %38 to ptr
  %40 = invoke noundef zeroext i1 @_ZN9QMetaType10canConvertES_S_(ptr %39, ptr nonnull @_ZN9QtPrivate25QMetaTypeInterfaceWrapperIiE8metaTypeE)
          to label %_ZNK8QVariant10canConvertIiEEbv.exit12 unwind label %33

_ZNK8QVariant10canConvertIiEEbv.exit12:           ; preds = %35
  br i1 %40, label %41, label %48

41:                                               ; preds = %_ZNK8QVariant10canConvertIiEEbv.exit12
  %42 = getelementptr inbounds i8, ptr %0, i64 144
  %43 = load ptr, ptr %42, align 8
  %44 = invoke noundef i32 @_ZNK8QVariant5toIntEPb(ptr noundef nonnull align 8 dereferenceable(32) %5, ptr noundef null)
          to label %45 unwind label %33

45:                                               ; preds = %41
  %46 = invoke noundef i32 @_ZNK8QVariant5toIntEPb(ptr noundef nonnull align 8 dereferenceable(32) %6, ptr noundef null)
          to label %47 unwind label %33

47:                                               ; preds = %45
  invoke void @_ZN10PacketList10goToPacketEii(ptr noundef nonnull align 8 dereferenceable(464) %43, i32 noundef %44, i32 noundef %46)
          to label %48 unwind label %33

48:                                               ; preds = %47, %_ZNK8QVariant10canConvertIiEEbv.exit12
  call void @_ZN8QVariantD1Ev(ptr noundef nonnull align 8 dereferenceable(32) %6) #12
  call void @_ZN8QVariantD1Ev(ptr noundef nonnull align 8 dereferenceable(32) %5) #12
  br label %_ZNK11QModelIndex7isValidEv.exit.thread

_ZNK11QModelIndex7isValidEv.exit.thread:          ; preds = %2, %48
  ret void

49:                                               ; preds = %33, %31
  %.pn = phi { ptr, i32 } [ %34, %33 ], [ %32, %31 ]
  call void @_ZN8QVariantD1Ev(ptr noundef nonnull align 8 dereferenceable(32) %5) #12
  resume { ptr, i32 } %.pn
}